Certificate:
    Data:
        Version: 3 (0x2)
        Serial Number: 1 (0x1)
    Signature Algorithm: sha256WithRSAEncryption
        Issuer: C=DE, ST=NRW, L=Cologne, O=Chaos Computer Club Cologne (C4) e.V., OU=Chaosnetz, CN=Chaos Computer Club Cologne (C4) e.V. CA/name=EasyRSA/emailAddress=netz@koeln.ccc.de
        Validity
            Not Before: Sep 25 19:30:46 2016 GMT
            Not After : Sep 23 19:30:46 2026 GMT
        Subject: C=DE, ST=NRW, L=Cologne, O=Chaos Computer Club Cologne (C4) e.V., OU=Chaosnetz, CN=omni.freifunk-koeln.de/name=EasyRSA/emailAddress=netz@koeln.ccc.de
        Subject Public Key Info:
            Public Key Algorithm: rsaEncryption
                Public-Key: (2048 bit)
                Modulus:
                    00:c1:ce:df:33:ed:3d:5b:a0:94:5b:23:e9:67:2c:
                    5a:76:c3:6f:43:05:23:da:a6:ca:69:87:fb:84:3a:
                    d1:5f:f8:0f:bd:04:2f:31:5d:60:3a:a6:2e:5d:78:
                    f8:4a:d4:21:43:1d:85:82:f0:ce:55:fc:ea:ad:6a:
                    f1:7c:11:f5:87:5f:82:e2:42:2f:66:67:bf:97:51:
                    1d:5d:04:a2:17:2b:40:33:45:09:d0:b2:e2:a7:17:
                    8b:b5:dd:e2:60:88:3e:1b:c3:74:69:85:f9:4c:9e:
                    9b:80:d9:a5:55:ff:37:ff:16:c7:f3:ce:f0:7d:69:
                    79:26:54:08:3c:3e:0b:56:77:3e:4e:3c:ab:bd:96:
                    b3:4c:b6:93:b4:15:98:e6:94:eb:ff:52:c0:ab:5c:
                    75:69:50:b0:70:fd:6b:45:1b:ec:84:5a:f0:b3:b0:
                    2d:e3:07:a4:ec:64:37:4a:36:0a:cb:04:0a:fe:c7:
                    4e:ea:fb:95:40:ed:de:0b:61:72:b7:6d:4b:a2:55:
                    9a:c6:f2:91:7b:b5:24:24:0e:76:b8:40:c3:96:c0:
                    a9:26:8a:dd:0e:f4:45:19:f7:f8:42:6d:11:ab:94:
                    0d:36:96:33:85:49:b6:22:72:bd:d2:0d:b9:51:b2:
                    78:e3:ce:7e:8a:5f:1f:b6:a7:39:cf:49:af:fe:b4:
                    2f:69
                Exponent: 65537 (0x10001)
        X509v3 extensions:
            X509v3 Basic Constraints: 
                CA:FALSE
            Netscape Cert Type: 
                SSL Server
            Netscape Comment: 
                Easy-RSA Generated Server Certificate
            X509v3 Subject Key Identifier: 
                C8:55:7F:28:E2:67:23:AF:49:88:16:9A:51:2E:41:0E:BE:87:FE:B4
            X509v3 Authority Key Identifier: 
                keyid:CC:36:DB:DB:B9:27:CE:3D:45:F1:27:A3:53:11:AD:1D:2C:A6:E9:97
                DirName:/C=DE/ST=NRW/L=Cologne/O=Chaos Computer Club Cologne (C4) e.V./OU=Chaosnetz/CN=Chaos Computer Club Cologne (C4) e.V. CA/name=EasyRSA/emailAddress=netz@koeln.ccc.de
                serial:BA:9B:CE:0C:6D:B3:3C:92

            X509v3 Extended Key Usage: 
                TLS Web Server Authentication
            X509v3 Key Usage: 
                Digital Signature, Key Encipherment
            X509v3 Subject Alternative Name: 
                DNS:omni.freifunk-koeln.de
    Signature Algorithm: sha256WithRSAEncryption
         46:c8:0c:10:a7:d6:f2:63:e1:a8:5a:be:8f:b9:ff:d0:db:c2:
         a2:90:d4:8d:a8:8a:c4:3f:14:22:73:89:93:14:91:6f:88:ef:
         b3:53:0b:79:7c:08:73:97:15:b0:8e:5b:7e:cc:31:19:c8:50:
         3e:66:9a:bc:a0:c0:8a:88:60:8f:16:4f:af:0a:63:33:ef:00:
         a6:33:44:e9:df:c0:52:d6:f8:c0:d1:25:0a:4b:81:57:1b:85:
         59:f8:43:d4:24:8f:f4:24:68:b8:15:65:d9:eb:73:bf:8b:10:
         67:70:5c:c8:67:c7:e4:05:03:d7:e4:04:f2:ca:42:a6:3e:48:
         09:99:a6:7b:57:5f:d9:8b:f9:b2:00:f8:12:4d:69:cd:14:8f:
         85:88:3b:c1:3b:15:8e:83:2f:28:67:e1:54:07:bf:26:61:42:
         db:ad:36:eb:59:1c:8f:b9:f9:fe:f4:22:fa:a5:e7:f9:3d:2b:
         c5:11:30:27:cf:95:ff:05:8c:9c:bd:51:96:29:24:81:49:7a:
         7a:a5:82:ea:96:a2:61:55:81:14:7d:5d:d9:cf:af:c0:98:07:
         ab:a2:c7:8f:10:ae:f7:7f:ba:61:99:1b:3b:45:ce:fd:0a:bb:
         53:5a:03:08:97:19:17:68:28:ff:1d:d4:8b:5d:90:04:c6:8a:
         f2:c7:86:f2
-----BEGIN CERTIFICATE-----
MIIF7DCCBNSgAwIBAgIBATANBgkqhkiG9w0BAQsFADCB2DELMAkGA1UEBhMCREUx
DDAKBgNVBAgTA05SVzEQMA4GA1UEBxMHQ29sb2duZTEuMCwGA1UEChMlQ2hhb3Mg
Q29tcHV0ZXIgQ2x1YiBDb2xvZ25lIChDNCkgZS5WLjESMBAGA1UECxMJQ2hhb3Nu
ZXR6MTEwLwYDVQQDEyhDaGFvcyBDb21wdXRlciBDbHViIENvbG9nbmUgKEM0KSBl
LlYuIENBMRAwDgYDVQQpEwdFYXN5UlNBMSAwHgYJKoZIhvcNAQkBFhFuZXR6QGtv
ZWxuLmNjYy5kZTAeFw0xNjA5MjUxOTMwNDZaFw0yNjA5MjMxOTMwNDZaMIHGMQsw
CQYDVQQGEwJERTEMMAoGA1UECBMDTlJXMRAwDgYDVQQHEwdDb2xvZ25lMS4wLAYD
VQQKEyVDaGFvcyBDb21wdXRlciBDbHViIENvbG9nbmUgKEM0KSBlLlYuMRIwEAYD
VQQLEwlDaGFvc25ldHoxHzAdBgNVBAMTFm9tbmkuZnJlaWZ1bmsta29lbG4uZGUx
EDAOBgNVBCkTB0Vhc3lSU0ExIDAeBgkqhkiG9w0BCQEWEW5ldHpAa29lbG4uY2Nj
LmRlMIIBIjANBgkqhkiG9w0BAQEFAAOCAQ8AMIIBCgKCAQEAwc7fM+09W6CUWyPp
ZyxadsNvQwUj2qbKaYf7hDrRX/gPvQQvMV1gOqYuXXj4StQhQx2FgvDOVfzqrWrx
fBH1h1+C4kIvZme/l1EdXQSiFytAM0UJ0LLipxeLtd3iYIg+G8N0aYX5TJ6bgNml
Vf83/xbH887wfWl5JlQIPD4LVnc+TjyrvZazTLaTtBWY5pTr/1LAq1x1aVCwcP1r
RRvshFrws7At4wek7GQ3SjYKywQK/sdO6vuVQO3eC2Fyt21LolWaxvKRe7UkJA52
uEDDlsCpJordDvRFGff4Qm0Rq5QNNpYzhUm2InK90g25UbJ4485+il8ftqc5z0mv
/rQvaQIDAQABo4IBzzCCAcswCQYDVR0TBAIwADARBglghkgBhvhCAQEEBAMCBkAw
NAYJYIZIAYb4QgENBCcWJUVhc3ktUlNBIEdlbmVyYXRlZCBTZXJ2ZXIgQ2VydGlm
aWNhdGUwHQYDVR0OBBYEFMhVfyjiZyOvSYgWmlEuQQ6+h/60MIIBDwYDVR0jBIIB
BjCCAQKAFMw229u5J849RfEno1MRrR0spumXoYHepIHbMIHYMQswCQYDVQQGEwJE
RTEMMAoGA1UECBMDTlJXMRAwDgYDVQQHEwdDb2xvZ25lMS4wLAYDVQQKEyVDaGFv
cyBDb21wdXRlciBDbHViIENvbG9nbmUgKEM0KSBlLlYuMRIwEAYDVQQLEwlDaGFv
c25ldHoxMTAvBgNVBAMTKENoYW9zIENvbXB1dGVyIENsdWIgQ29sb2duZSAoQzQp
IGUuVi4gQ0ExEDAOBgNVBCkTB0Vhc3lSU0ExIDAeBgkqhkiG9w0BCQEWEW5ldHpA
a29lbG4uY2NjLmRlggkAupvODG2zPJIwEwYDVR0lBAwwCgYIKwYBBQUHAwEwCwYD
VR0PBAQDAgWgMCEGA1UdEQQaMBiCFm9tbmkuZnJlaWZ1bmsta29lbG4uZGUwDQYJ
KoZIhvcNAQELBQADggEBAEbIDBCn1vJj4ahavo+5/9DbwqKQ1I2oisQ/FCJziZMU
kW+I77NTC3l8CHOXFbCOW37MMRnIUD5mmrygwIqIYI8WT68KYzPvAKYzROnfwFLW
+MDRJQpLgVcbhVn4Q9Qkj/QkaLgVZdnrc7+LEGdwXMhnx+QFA9fkBPLKQqY+SAmZ
pntXX9mL+bIA+BJNac0Uj4WIO8E7FY6DLyhn4VQHvyZhQtutNutZHI+5+f70Ivql
5/k9K8URMCfPlf8FjJy9UZYpJIFJenqlguqWomFVgRR9XdnPr8CYB6uix48Qrvd/
umGZGztFzv0Ku1NaAwiXGRdoKP8d1ItdkATGivLHhvI=
-----END CERTIFICATE-----
